target datalayout = "e-m:e-p270:32:32-p271:32:32-p272:64:64-i64:64-i128:128-f80:128-n8:16:32:64-S128"
target triple = "x86_64-pc-linux-gnu"

%"class.icu_77::RBBITableBuilder" = type <{ ptr, ptr, ptr, ptr, ptr, ptr, i32, [4 x i8] }>

; Function Attrs: inlinehint mustprogress nounwind uwtable
define internal noundef signext i8 @_ZL9U_SUCCESS10UErrorCode(i32 noundef %0) #1 {
  %2 = alloca i32, align 4
  store i32 %0, ptr %2, align 4, !tbaa !24
  %3 = load i32, ptr %2, align 4, !tbaa !24
  %4 = icmp sle i32 %3, 0
  %5 = zext i1 %4 to i8
  ret i8 %5
}

; Function Attrs: inlinehint mustprogress nounwind uwtable
define internal noundef signext i8 @_ZL9U_FAILURE10UErrorCode(i32 noundef %0) #1 {
  %2 = alloca i32, align 4
  store i32 %0, ptr %2, align 4, !tbaa !24
  %3 = load i32, ptr %2, align 4, !tbaa !24
  %4 = icmp sgt i32 %3, 0
  %5 = zext i1 %4 to i8
  ret i8 %5
}

; Function Attrs: mustprogress uwtable
define void @_ZN6icu_7716RBBITableBuilderC2EPNS_15RBBIRuleBuilderEPPNS_8RBBINodeER10UErrorCode(ptr noundef nonnull align 8 dereferenceable(52) %0, ptr noundef %1, ptr noundef %2, ptr noundef nonnull align 4 dereferenceable(4) %3) unnamed_addr #0 align 2 personality ptr @__gxx_personality_v0 {
  %5 = alloca ptr, align 8
  %6 = alloca ptr, align 8
  %7 = alloca ptr, align 8
  %8 = alloca ptr, align 8
  %9 = alloca ptr, align 8
  %10 = alloca i1, align 1
  %11 = alloca ptr, align 8
  %12 = alloca i32, align 4
  store ptr %0, ptr %5, align 8, !tbaa !3
  store ptr %1, ptr %6, align 8, !tbaa !8
  store ptr %2, ptr %7, align 8, !tbaa !10
  store ptr %3, ptr %8, align 8, !tbaa !13
  %13 = load ptr, ptr %5, align 8
  %14 = getelementptr inbounds nuw %"class.icu_77::RBBITableBuilder", ptr %13, i32 0, i32 0
  %15 = load ptr, ptr %6, align 8, !tbaa !8
  store ptr %15, ptr %14, align 8, !tbaa !14
  %16 = getelementptr inbounds nuw %"class.icu_77::RBBITableBuilder", ptr %13, i32 0, i32 1
  %17 = load ptr, ptr %7, align 8, !tbaa !10
  store ptr %17, ptr %16, align 8, !tbaa !10
  %18 = getelementptr inbounds nuw %"class.icu_77::RBBITableBuilder", ptr %13, i32 0, i32 2
  %19 = load ptr, ptr %8, align 8, !tbaa !13
  store ptr %19, ptr %18, align 8, !tbaa !19
  %20 = getelementptr inbounds nuw %"class.icu_77::RBBITableBuilder", ptr %13, i32 0, i32 3
  store ptr null, ptr %20, align 8, !tbaa !20
  %21 = getelementptr inbounds nuw %"class.icu_77::RBBITableBuilder", ptr %13, i32 0, i32 4
  store ptr null, ptr %21, align 8, !tbaa !21
  %22 = getelementptr inbounds nuw %"class.icu_77::RBBITableBuilder", ptr %13, i32 0, i32 5
  store ptr null, ptr %22, align 8, !tbaa !22
  %23 = getelementptr inbounds nuw %"class.icu_77::RBBITableBuilder", ptr %13, i32 0, i32 6
  store i32 1, ptr %23, align 8, !tbaa !23
  %24 = load ptr, ptr %8, align 8, !tbaa !13
  %25 = load i32, ptr %24, align 4, !tbaa !24
  %26 = call noundef signext i8 @_ZL9U_FAILURE10UErrorCode(i32 noundef %25)
  %27 = icmp ne i8 %26, 0
  br i1 %27, label %28, label %29

28:                                               ; preds = %4
  br label %56

29:                                               ; preds = %4
  %30 = call noundef ptr @_ZN6icu_777UMemorynwEm(i64 noundef 40) #11
  %31 = icmp eq ptr %30, null
  store i1 false, ptr %10, align 1
  br i1 %31, label %35, label %32

32:                                               ; preds = %29
  store ptr %30, ptr %9, align 8
  store i1 true, ptr %10, align 1
  %33 = load ptr, ptr %8, align 8, !tbaa !13
  invoke void @_ZN6icu_777UVectorC1ER10UErrorCode(ptr noundef nonnull align 8 dereferenceable(40) %30, ptr noundef nonnull align 4 dereferenceable(4) %33)
          to label %34 unwind label %48

34:                                               ; preds = %32
  br label %35

35:                                               ; preds = %34, %29
  %36 = phi ptr [ %30, %34 ], [ null, %29 ]
  %37 = getelementptr inbounds nuw %"class.icu_77::RBBITableBuilder", ptr %13, i32 0, i32 3
  store ptr %36, ptr %37, align 8, !tbaa !20
  %38 = load ptr, ptr %8, align 8, !tbaa !13
  %39 = load i32, ptr %38, align 4, !tbaa !24
  %40 = call noundef signext i8 @_ZL9U_SUCCESS10UErrorCode(i32 noundef %39)
  %41 = icmp ne i8 %40, 0
  br i1 %41, label %42, label %56

42:                                               ; preds = %35
  %43 = getelementptr inbounds nuw %"class.icu_77::RBBITableBuilder", ptr %13, i32 0, i32 3
  %44 = load ptr, ptr %43, align 8, !tbaa !20
  %45 = icmp eq ptr %44, null
  br i1 %45, label %46, label %56

46:                                               ; preds = %42
  %47 = load ptr, ptr %8, align 8, !tbaa !13
  store i32 7, ptr %47, align 4, !tbaa !24
  br label %56

48:                                               ; preds = %32
  %49 = landingpad { ptr, i32 }
          cleanup
  %50 = extractvalue { ptr, i32 } %49, 0
  store ptr %50, ptr %11, align 8
  %51 = extractvalue { ptr, i32 } %49, 1
  store i32 %51, ptr %12, align 4
  %52 = load i1, ptr %10, align 1
  br i1 %52, label %53, label %55

53:                                               ; preds = %48
  %54 = load ptr, ptr %9, align 8
  call void @_ZN6icu_777UMemorydlEPv(ptr noundef %54) #11
  br label %55

55:                                               ; preds = %53, %48
  br label %57

56:                                               ; preds = %28, %46, %42, %35
  ret void

57:                                               ; preds = %55
  %58 = load ptr, ptr %11, align 8
  %59 = load i32, ptr %12, align 4
  %60 = insertvalue { ptr, i32 } poison, ptr %58, 0
  %61 = insertvalue { ptr, i32 } %60, i32 %59, 1
  resume { ptr, i32 } %61
}