; Function Attrs: mustprogress uwtable
define void @_ZN6icu_7716RBBITableBuilderC2EPNS_15RBBIRuleBuilderEPPNS_8RBBINodeER10UErrorCode(ptr noundef nonnull writeonly align 8 captures(none) dereferenceable(52) initializes((0, 52)) %0, ptr noundef %1, ptr noundef %2, ptr noundef nonnull align 4 dereferenceable(4) %3) unnamed_addr #0 align 2 personality ptr @__gxx_personality_v0 {
  store ptr %1, ptr %0, align 8, !tbaa !3
  %5 = getelementptr inbounds nuw i8, ptr %0, i64 8
  store ptr %2, ptr %5, align 8, !tbaa !14
  %6 = getelementptr inbounds nuw i8, ptr %0, i64 16
  store ptr %3, ptr %6, align 8, !tbaa !15
  %7 = getelementptr inbounds nuw i8, ptr %0, i64 24
  %8 = getelementptr inbounds nuw i8, ptr %0, i64 48
  tail call void @llvm.memset.p0.i64(ptr noundef nonnull align 8 dereferenceable(24) %7, i8 0, i64 24, i1 false)
  store i32 1, ptr %8, align 8, !tbaa !16
  %9 = load i32, ptr %3, align 4, !tbaa !17
  %10 = icmp slt i32 %9, 1
  br i1 %10, label %11, label %21

11:                                               ; preds = %4
  %12 = tail call noundef ptr @_ZN6icu_777UMemorynwEm(i64 noundef 40) #13
  %13 = icmp eq ptr %12, null
  br i1 %13, label %15, label %14

14:                                               ; preds = %11
  invoke void @_ZN6icu_777UVectorC1ER10UErrorCode(ptr noundef nonnull align 8 dereferenceable(40) %12, ptr noundef nonnull align 4 dereferenceable(4) %3)
          to label %.thread unwind label %19

.thread:                                          ; preds = %14
  store ptr %12, ptr %7, align 8, !tbaa !19
  br label %21

15:                                               ; preds = %11
  store ptr null, ptr %7, align 8, !tbaa !19
  %16 = load i32, ptr %3, align 4, !tbaa !17
  %17 = icmp slt i32 %16, 1
  br i1 %17, label %18, label %21

18:                                               ; preds = %15
  store i32 7, ptr %3, align 4, !tbaa !17
  br label %21

19:                                               ; preds = %14
  %20 = landingpad { ptr, i32 }
          cleanup
  tail call void @_ZN6icu_777UMemorydlEPv(ptr noundef nonnull %12) #13
  resume { ptr, i32 } %20

21:                                               ; preds = %.thread, %4, %18, %15
  ret void
}